target datalayout = "e-m:e-p270:32:32-p271:32:32-p272:64:64-i64:64-i128:128-f80:128-n8:16:32:64-S128"
target triple = "x86_64-unknown-linux-gnu"

%class.btTriangleIndexVertexArray = type <{ %class.btStridingMeshInterface, %class.btAlignedObjectArray, [2 x i32], i32, %class.btVector3, %class.btVector3, [4 x i8] }>
%class.btStridingMeshInterface = type { ptr, %class.btVector3 }
%class.btAlignedObjectArray = type <{ %class.btAlignedAllocator, [3 x i8], i32, i32, [4 x i8], ptr, i8, [7 x i8] }>
%class.btAlignedAllocator = type { i8 }
%class.btVector3 = type { [4 x float] }

; Function Attrs: mustprogress nounwind uwtable
define dso_local void @_ZNK26btTriangleIndexVertexArray14setPremadeAabbERK9btVector3S2_(ptr noundef nonnull align 8 dereferenceable(100) %this, ptr noundef nonnull align 4 dereferenceable(16) %aabbMin, ptr noundef nonnull align 4 dereferenceable(16) %aabbMax) unnamed_addr #1 align 2 {
entry:
  %this.addr = alloca ptr, align 8
  %aabbMin.addr = alloca ptr, align 8
  %aabbMax.addr = alloca ptr, align 8
  store ptr %this, ptr %this.addr, align 8
  store ptr %aabbMin, ptr %aabbMin.addr, align 8
  store ptr %aabbMax, ptr %aabbMax.addr, align 8
  %this1 = load ptr, ptr %this.addr, align 8
  %0 = load ptr, ptr %aabbMin.addr, align 8
  %m_aabbMin = getelementptr inbounds %class.btTriangleIndexVertexArray, ptr %this1, i32 0, i32 4
  call void @llvm.memcpy.p0.p0.i64(ptr align 4 %m_aabbMin, ptr align 4 %0, i64 16, i1 false)
  %1 = load ptr, ptr %aabbMax.addr, align 8
  %m_aabbMax = getelementptr inbounds %class.btTriangleIndexVertexArray, ptr %this1, i32 0, i32 5
  call void @llvm.memcpy.p0.p0.i64(ptr align 4 %m_aabbMax, ptr align 4 %1, i64 16, i1 false)
  %m_hasAabb = getelementptr inbounds %class.btTriangleIndexVertexArray, ptr %this1, i32 0, i32 3
  store i32 1, ptr %m_hasAabb, align 8
  ret void
}