; Function Attrs: mustprogress nofree norecurse nosync nounwind willreturn memory(argmem: readwrite) uwtable
define dso_local void @_ZNK26btTriangleIndexVertexArray14setPremadeAabbERK9btVector3S2_(ptr nocapture noundef nonnull writeonly align 8 dereferenceable(100) %this, ptr nocapture noundef nonnull readonly align 4 dereferenceable(16) %aabbMin, ptr nocapture noundef nonnull readonly align 4 dereferenceable(16) %aabbMax) unnamed_addr #5 align 2 {
entry:
  %m_aabbMin = getelementptr inbounds i8, ptr %this, i64 68
  tail call void @llvm.memcpy.p0.p0.i64(ptr noundef nonnull align 4 dereferenceable(16) %m_aabbMin, ptr noundef nonnull align 4 dereferenceable(16) %aabbMin, i64 16, i1 false)
  %m_aabbMax = getelementptr inbounds i8, ptr %this, i64 84
  tail call void @llvm.memcpy.p0.p0.i64(ptr noundef nonnull align 4 dereferenceable(16) %m_aabbMax, ptr noundef nonnull align 4 dereferenceable(16) %aabbMax, i64 16, i1 false)
  %m_hasAabb = getelementptr inbounds i8, ptr %this, i64 64
  store i32 1, ptr %m_hasAabb, align 8
  ret void
}